
rv32si-p-dirty:     file format elf32-littleriscv


Disassembly of section .text.init:

00000000 <_start>:
   0:	04c0006f          	j	4c <reset_vector>

00000004 <trap_vector>:
   4:	34202f73          	csrr	t5,mcause
   8:	00800f93          	li	t6,8
   c:	03ff0a63          	beq	t5,t6,40 <write_tohost>
  10:	00900f93          	li	t6,9
  14:	03ff0663          	beq	t5,t6,40 <write_tohost>
  18:	00b00f93          	li	t6,11
  1c:	03ff0263          	beq	t5,t6,40 <write_tohost>
  20:	00000f17          	auipc	t5,0x0
  24:	1ccf0f13          	addi	t5,t5,460 # 1ec <mtvec_handler>
  28:	000f0463          	beqz	t5,30 <trap_vector+0x2c>
  2c:	000f0067          	jr	t5
  30:	34202f73          	csrr	t5,mcause
  34:	000f5463          	bgez	t5,3c <handle_exception>
  38:	0040006f          	j	3c <handle_exception>

0000003c <handle_exception>:
  3c:	5391e193          	ori	gp,gp,1337

00000040 <write_tohost>:
  40:	00001f17          	auipc	t5,0x1
  44:	fc3f2023          	sw	gp,-64(t5) # 1000 <tohost>
  48:	ff9ff06f          	j	40 <write_tohost>

0000004c <reset_vector>:
  4c:	f1402573          	csrr	a0,mhartid
  50:	00051063          	bnez	a0,50 <reset_vector+0x4>
  54:	00000297          	auipc	t0,0x0
  58:	01028293          	addi	t0,t0,16 # 64 <reset_vector+0x18>
  5c:	30529073          	csrw	mtvec,t0
  60:	18005073          	csrwi	satp,0
  64:	00000297          	auipc	t0,0x0
  68:	01c28293          	addi	t0,t0,28 # 80 <reset_vector+0x34>
  6c:	30529073          	csrw	mtvec,t0
  70:	fff00293          	li	t0,-1
  74:	3b029073          	csrw	pmpaddr0,t0
  78:	01f00293          	li	t0,31
  7c:	3a029073          	csrw	pmpcfg0,t0
  80:	00000297          	auipc	t0,0x0
  84:	01828293          	addi	t0,t0,24 # 98 <reset_vector+0x4c>
  88:	30529073          	csrw	mtvec,t0
  8c:	30205073          	csrwi	medeleg,0
  90:	30305073          	csrwi	mideleg,0
  94:	30405073          	csrwi	mie,0
  98:	00000193          	li	gp,0
  9c:	00000297          	auipc	t0,0x0
  a0:	f6828293          	addi	t0,t0,-152 # 4 <trap_vector>
  a4:	30529073          	csrw	mtvec,t0
  a8:	00100513          	li	a0,1
  ac:	01f51513          	slli	a0,a0,0x1f
  b0:	00054863          	bltz	a0,c0 <reset_vector+0x74>
  b4:	0ff0000f          	fence
  b8:	00100193          	li	gp,1
  bc:	00000073          	ecall
  c0:	00000297          	auipc	t0,0x0
  c4:	f4028293          	addi	t0,t0,-192 # 0 <_start>
  c8:	00028e63          	beqz	t0,e4 <reset_vector+0x98>
  cc:	10529073          	csrw	stvec,t0
  d0:	0000b2b7          	lui	t0,0xb
  d4:	10928293          	addi	t0,t0,265 # b109 <_end+0x90f9>
  d8:	30229073          	csrw	medeleg,t0
  dc:	30202373          	csrr	t1,medeleg
  e0:	f4629ee3          	bne	t0,t1,3c <handle_exception>
  e4:	30005073          	csrwi	mstatus,0
  e8:	00002537          	lui	a0,0x2
  ec:	80050513          	addi	a0,a0,-2048 # 1800 <fromhost+0x7c0>
  f0:	30052073          	csrs	mstatus,a0
  f4:	00000297          	auipc	t0,0x0
  f8:	01428293          	addi	t0,t0,20 # 108 <reset_vector+0xbc>
  fc:	34129073          	csrw	mepc,t0
 100:	f1402573          	csrr	a0,mhartid
 104:	30200073          	mret
 108:	80000537          	lui	a0,0x80000
 10c:	00002597          	auipc	a1,0x2
 110:	ef458593          	addi	a1,a1,-268 # 2000 <begin_signature>
 114:	00c5d593          	srli	a1,a1,0xc
 118:	00a5e5b3          	or	a1,a1,a0
 11c:	18059073          	csrw	satp,a1
 120:	12000073          	sfence.vma
 124:	000215b7          	lui	a1,0x21
 128:	80058593          	addi	a1,a1,-2048 # 20800 <_end+0x1e7f0>
 12c:	3005a073          	csrs	mstatus,a1
 130:	00200193          	li	gp,2
 134:	00100393          	li	t2,1
 138:	80002517          	auipc	a0,0x80002
 13c:	ec752823          	sw	t2,-304(a0) # 80002008 <_end+0x7ffffff8>
 140:	00300193          	li	gp,3
 144:	000415b7          	lui	a1,0x41
 148:	80058593          	addi	a1,a1,-2048 # 40800 <_end+0x3e7f0>
 14c:	3005a073          	csrs	mstatus,a1
 150:	80002297          	auipc	t0,0x80002
 154:	eb82a283          	lw	t0,-328(t0) # 80002008 <_end+0x7ffffff8>
 158:	10029063          	bnez	t0,258 <die>
 15c:	80002517          	auipc	a0,0x80002
 160:	ea752623          	sw	t2,-340(a0) # 80002008 <_end+0x7ffffff8>
 164:	80002297          	auipc	t0,0x80002
 168:	ea42a283          	lw	t0,-348(t0) # 80002008 <_end+0x7ffffff8>
 16c:	0e729663          	bne	t0,t2,258 <die>
 170:	000202b7          	lui	t0,0x20
 174:	3002b073          	csrc	mstatus,t0
 178:	00002297          	auipc	t0,0x2
 17c:	e882a283          	lw	t0,-376(t0) # 2000 <begin_signature>
 180:	0c000513          	li	a0,192
 184:	00a2f2b3          	and	t0,t0,a0
 188:	0ca29863          	bne	t0,a0,258 <die>
 18c:	000202b7          	lui	t0,0x20
 190:	3002a073          	csrs	mstatus,t0
 194:	00400193          	li	gp,4
 198:	80002517          	auipc	a0,0x80002
 19c:	e6852503          	lw	a0,-408(a0) # 80002000 <_end+0x7ffffff0>
 1a0:	40056513          	ori	a0,a0,1024
 1a4:	80002297          	auipc	t0,0x80002
 1a8:	e4a2ae23          	sw	a0,-420(t0) # 80002000 <_end+0x7ffffff0>
 1ac:	12000073          	sfence.vma
 1b0:	80002297          	auipc	t0,0x80002
 1b4:	e4a2a823          	sw	a0,-432(t0) # 80002000 <_end+0x7ffffff0>
 1b8:	0a00006f          	j	258 <die>
 1bc:	0ff0000f          	fence
 1c0:	00100193          	li	gp,1
 1c4:	00000073          	ecall
 1c8:	00301c63          	bne	zero,gp,1e0 <pass>

000001cc <fail>:
 1cc:	0ff0000f          	fence
 1d0:	00018063          	beqz	gp,1d0 <fail+0x4>
 1d4:	00119193          	slli	gp,gp,0x1
 1d8:	0011e193          	ori	gp,gp,1
 1dc:	00000073          	ecall

000001e0 <pass>:
 1e0:	0ff0000f          	fence
 1e4:	00100193          	li	gp,1
 1e8:	00000073          	ecall

000001ec <mtvec_handler>:
 1ec:	342022f3          	csrr	t0,mcause
 1f0:	ff128293          	addi	t0,t0,-15
 1f4:	06029263          	bnez	t0,258 <die>
 1f8:	00200313          	li	t1,2
 1fc:	02619263          	bne	gp,t1,220 <skip+0x10>
 200:	00002297          	auipc	t0,0x2
 204:	e002a283          	lw	t0,-512(t0) # 2000 <begin_signature>
 208:	0802f313          	andi	t1,t0,128
 20c:	04031663          	bnez	t1,258 <die>

00000210 <skip>:
 210:	341022f3          	csrr	t0,mepc
 214:	00428293          	addi	t0,t0,4
 218:	34129073          	csrw	mepc,t0
 21c:	30200073          	mret
 220:	00300313          	li	t1,3
 224:	02619463          	bne	gp,t1,24c <skip+0x3c>
 228:	00002297          	auipc	t0,0x2
 22c:	dd82a283          	lw	t0,-552(t0) # 2000 <begin_signature>
 230:	0802f313          	andi	t1,t0,128
 234:	02031263          	bnez	t1,258 <die>
 238:	0802e293          	ori	t0,t0,128
 23c:	00002317          	auipc	t1,0x2
 240:	dc532223          	sw	t0,-572(t1) # 2000 <begin_signature>
 244:	12000073          	sfence.vma
 248:	30200073          	mret
 24c:	00400313          	li	t1,4
 250:	00619463          	bne	gp,t1,258 <die>
 254:	f8dff06f          	j	1e0 <pass>

00000258 <die>:
 258:	0ff0000f          	fence
 25c:	00018063          	beqz	gp,25c <die+0x4>
 260:	00119193          	slli	gp,gp,0x1
 264:	0011e193          	ori	gp,gp,1
 268:	00000073          	ecall
 26c:	c0001073          	unimp
 270:	0000                	unimp
 272:	0000                	unimp
 274:	0000                	unimp
 276:	0000                	unimp
 278:	0000                	unimp
 27a:	0000                	unimp
 27c:	0000                	unimp
 27e:	0000                	unimp
 280:	0000                	unimp
 282:	0000                	unimp
