
rv32uf-p-ldst:     file format elf32-littleriscv


Disassembly of section .text.init:

00000000 <_start>:
   0:	04c0006f          	j	4c <reset_vector>

00000004 <trap_vector>:
   4:	34202f73          	csrr	t5,mcause
   8:	00800f93          	li	t6,8
   c:	03ff0a63          	beq	t5,t6,40 <write_tohost>
  10:	00900f93          	li	t6,9
  14:	03ff0663          	beq	t5,t6,40 <write_tohost>
  18:	00b00f93          	li	t6,11
  1c:	03ff0263          	beq	t5,t6,40 <write_tohost>
  20:	00000f17          	auipc	t5,0x0
  24:	fe0f0f13          	addi	t5,t5,-32 # 0 <_start>
  28:	000f0463          	beqz	t5,30 <trap_vector+0x2c>
  2c:	000f0067          	jr	t5
  30:	34202f73          	csrr	t5,mcause
  34:	000f5463          	bgez	t5,3c <handle_exception>
  38:	0040006f          	j	3c <handle_exception>

0000003c <handle_exception>:
  3c:	5391e193          	ori	gp,gp,1337

00000040 <write_tohost>:
  40:	00001f17          	auipc	t5,0x1
  44:	fc3f2023          	sw	gp,-64(t5) # 1000 <tohost>
  48:	ff9ff06f          	j	40 <write_tohost>

0000004c <reset_vector>:
  4c:	f1402573          	csrr	a0,mhartid
  50:	00051063          	bnez	a0,50 <reset_vector+0x4>
  54:	00000297          	auipc	t0,0x0
  58:	01028293          	addi	t0,t0,16 # 64 <reset_vector+0x18>
  5c:	30529073          	csrw	mtvec,t0
  60:	18005073          	csrwi	satp,0
  64:	00000297          	auipc	t0,0x0
  68:	01c28293          	addi	t0,t0,28 # 80 <reset_vector+0x34>
  6c:	30529073          	csrw	mtvec,t0
  70:	fff00293          	li	t0,-1
  74:	3b029073          	csrw	pmpaddr0,t0
  78:	01f00293          	li	t0,31
  7c:	3a029073          	csrw	pmpcfg0,t0
  80:	00000297          	auipc	t0,0x0
  84:	01828293          	addi	t0,t0,24 # 98 <reset_vector+0x4c>
  88:	30529073          	csrw	mtvec,t0
  8c:	30205073          	csrwi	medeleg,0
  90:	30305073          	csrwi	mideleg,0
  94:	30405073          	csrwi	mie,0
  98:	00000193          	li	gp,0
  9c:	00000297          	auipc	t0,0x0
  a0:	f6828293          	addi	t0,t0,-152 # 4 <trap_vector>
  a4:	30529073          	csrw	mtvec,t0
  a8:	00100513          	li	a0,1
  ac:	01f51513          	slli	a0,a0,0x1f
  b0:	00054863          	bltz	a0,c0 <reset_vector+0x74>
  b4:	0ff0000f          	fence
  b8:	00100193          	li	gp,1
  bc:	00000073          	ecall
  c0:	00000297          	auipc	t0,0x0
  c4:	f4028293          	addi	t0,t0,-192 # 0 <_start>
  c8:	00028e63          	beqz	t0,e4 <reset_vector+0x98>
  cc:	10529073          	csrw	stvec,t0
  d0:	0000b2b7          	lui	t0,0xb
  d4:	10928293          	addi	t0,t0,265 # b109 <_end+0x90e9>
  d8:	30229073          	csrw	medeleg,t0
  dc:	30202373          	csrr	t1,medeleg
  e0:	f4629ee3          	bne	t0,t1,3c <handle_exception>
  e4:	30005073          	csrwi	mstatus,0
  e8:	00002537          	lui	a0,0x2
  ec:	30052073          	csrs	mstatus,a0
  f0:	00305073          	csrwi	fcsr,0
  f4:	00000297          	auipc	t0,0x0
  f8:	01428293          	addi	t0,t0,20 # 108 <test_2>
  fc:	34129073          	csrw	mepc,t0
 100:	f1402573          	csrr	a0,mhartid
 104:	30200073          	mret

00000108 <test_2>:
 108:	00002597          	auipc	a1,0x2
 10c:	ef858593          	addi	a1,a1,-264 # 2000 <begin_signature>
 110:	0045a087          	flw	ft1,4(a1)
 114:	0015aa27          	fsw	ft1,20(a1)
 118:	0145a503          	lw	a0,20(a1)
 11c:	40000eb7          	lui	t4,0x40000
 120:	00200193          	li	gp,2
 124:	03d51463          	bne	a0,t4,14c <fail>

00000128 <test_3>:
 128:	00002597          	auipc	a1,0x2
 12c:	ed858593          	addi	a1,a1,-296 # 2000 <begin_signature>
 130:	0005a087          	flw	ft1,0(a1)
 134:	0015ac27          	fsw	ft1,24(a1)
 138:	0185a503          	lw	a0,24(a1)
 13c:	bf800eb7          	lui	t4,0xbf800
 140:	00300193          	li	gp,3
 144:	01d51463          	bne	a0,t4,14c <fail>
 148:	00301c63          	bne	zero,gp,160 <pass>

0000014c <fail>:
 14c:	0ff0000f          	fence
 150:	00018063          	beqz	gp,150 <fail+0x4>
 154:	00119193          	slli	gp,gp,0x1
 158:	0011e193          	ori	gp,gp,1
 15c:	00000073          	ecall

00000160 <pass>:
 160:	0ff0000f          	fence
 164:	00100193          	li	gp,1
 168:	00000073          	ecall
 16c:	c0001073          	unimp
 170:	0000                	unimp
 172:	0000                	unimp
 174:	0000                	unimp
 176:	0000                	unimp
 178:	0000                	unimp
 17a:	0000                	unimp
 17c:	0000                	unimp
 17e:	0000                	unimp
 180:	0000                	unimp
 182:	0000                	unimp

Disassembly of section .data:

00002000 <begin_signature>:
    2000:	0000                	unimp
    2002:	bf80                	fsd	fs0,56(a5)
    2004:	0000                	unimp
    2006:	4000                	lw	s0,0(s0)
    2008:	0000                	unimp
    200a:	4040                	lw	s0,4(s0)
    200c:	0000                	unimp
    200e:	c080                	sw	s0,0(s1)
    2010:	deadbeef          	jal	t4,fffdd5fa <_end+0xfffdb5da>
    2014:	babe                	fsd	fa5,368(sp)
    2016:	cafe                	sw	t6,84(sp)
    2018:	1dea                	slli	s11,s11,0x3a
    201a:	abad                	j	2594 <_end+0x574>
    201c:	d00d                	beqz	s0,1f3e <fromhost+0xefe>
    201e:	          	lui	t1,0x1
