
rv32si-p-ma_fetch:     file format elf32-littleriscv


Disassembly of section .text.init:

00000000 <_start>:
   0:	04c0006f          	j	4c <reset_vector>

00000004 <trap_vector>:
   4:	34202f73          	csrr	t5,mcause
   8:	00800f93          	li	t6,8
   c:	03ff0a63          	beq	t5,t6,40 <write_tohost>
  10:	00900f93          	li	t6,9
  14:	03ff0663          	beq	t5,t6,40 <write_tohost>
  18:	00b00f93          	li	t6,11
  1c:	03ff0263          	beq	t5,t6,40 <write_tohost>
  20:	00000f17          	auipc	t5,0x0
  24:	fe0f0f13          	addi	t5,t5,-32 # 0 <_start>
  28:	000f0463          	beqz	t5,30 <trap_vector+0x2c>
  2c:	000f0067          	jr	t5
  30:	34202f73          	csrr	t5,mcause
  34:	000f5463          	bgez	t5,3c <handle_exception>
  38:	0040006f          	j	3c <handle_exception>

0000003c <handle_exception>:
  3c:	5391e193          	ori	gp,gp,1337

00000040 <write_tohost>:
  40:	00001f17          	auipc	t5,0x1
  44:	fc3f2023          	sw	gp,-64(t5) # 1000 <tohost>
  48:	ff9ff06f          	j	40 <write_tohost>

0000004c <reset_vector>:
  4c:	f1402573          	csrr	a0,mhartid
  50:	00051063          	bnez	a0,50 <reset_vector+0x4>
  54:	00000297          	auipc	t0,0x0
  58:	01028293          	addi	t0,t0,16 # 64 <reset_vector+0x18>
  5c:	30529073          	csrw	mtvec,t0
  60:	18005073          	csrwi	satp,0
  64:	00000297          	auipc	t0,0x0
  68:	01c28293          	addi	t0,t0,28 # 80 <reset_vector+0x34>
  6c:	30529073          	csrw	mtvec,t0
  70:	fff00293          	li	t0,-1
  74:	3b029073          	csrw	pmpaddr0,t0
  78:	01f00293          	li	t0,31
  7c:	3a029073          	csrw	pmpcfg0,t0
  80:	00000297          	auipc	t0,0x0
  84:	01828293          	addi	t0,t0,24 # 98 <reset_vector+0x4c>
  88:	30529073          	csrw	mtvec,t0
  8c:	30205073          	csrwi	medeleg,0
  90:	30305073          	csrwi	mideleg,0
  94:	30405073          	csrwi	mie,0
  98:	00000193          	li	gp,0
  9c:	00000297          	auipc	t0,0x0
  a0:	f6828293          	addi	t0,t0,-152 # 4 <trap_vector>
  a4:	30529073          	csrw	mtvec,t0
  a8:	00100513          	li	a0,1
  ac:	01f51513          	slli	a0,a0,0x1f
  b0:	00054863          	bltz	a0,c0 <reset_vector+0x74>
  b4:	0ff0000f          	fence
  b8:	00100193          	li	gp,1
  bc:	00000073          	ecall
  c0:	00000297          	auipc	t0,0x0
  c4:	11428293          	addi	t0,t0,276 # 1d4 <stvec_handler>
  c8:	00028e63          	beqz	t0,e4 <reset_vector+0x98>
  cc:	10529073          	csrw	stvec,t0
  d0:	0000b2b7          	lui	t0,0xb
  d4:	10928293          	addi	t0,t0,265 # b109 <_end+0x9109>
  d8:	30229073          	csrw	medeleg,t0
  dc:	30202373          	csrr	t1,medeleg
  e0:	f4629ee3          	bne	t0,t1,3c <handle_exception>
  e4:	30005073          	csrwi	mstatus,0
  e8:	00001537          	lui	a0,0x1
  ec:	80050513          	addi	a0,a0,-2048 # 800 <stvec_handler+0x62c>
  f0:	30052073          	csrs	mstatus,a0
  f4:	02200513          	li	a0,34
  f8:	30352073          	csrs	mideleg,a0
  fc:	00000297          	auipc	t0,0x0
 100:	01428293          	addi	t0,t0,20 # 110 <reset_vector+0xc4>
 104:	34129073          	csrw	mepc,t0
 108:	f1402573          	csrr	a0,mhartid
 10c:	30200073          	mret
 110:	00200193          	li	gp,2
 114:	00000313          	li	t1,0
 118:	00000297          	auipc	t0,0x0
 11c:	00c28293          	addi	t0,t0,12 # 124 <reset_vector+0xd8>
 120:	00228367          	jalr	t1,2(t0)
 124:	a011                	j	128 <reset_vector+0xdc>
 126:	a019                	j	12c <reset_vector+0xe0>
 128:	08c0006f          	j	1b4 <fail>
 12c:	00300193          	li	gp,3
 130:	00000297          	auipc	t0,0x0
 134:	00c28293          	addi	t0,t0,12 # 13c <reset_vector+0xf0>
 138:	00128367          	jalr	t1,1(t0)
 13c:	0080006f          	j	144 <reset_vector+0xf8>
 140:	0740006f          	j	1b4 <fail>
 144:	00400193          	li	gp,4
 148:	00000313          	li	t1,0
 14c:	00000297          	auipc	t0,0x0
 150:	00c28293          	addi	t0,t0,12 # 158 <reset_vector+0x10c>
 154:	00328367          	jalr	t1,3(t0)
 158:	a011                	j	15c <reset_vector+0x110>
 15a:	a019                	j	160 <reset_vector+0x114>
 15c:	0580006f          	j	1b4 <fail>
 160:	00500193          	li	gp,5
 164:	00000313          	li	t1,0
 168:	00000297          	auipc	t0,0x0
 16c:	00c28293          	addi	t0,t0,12 # 174 <reset_vector+0x128>
 170:	0060036f          	jal	t1,176 <reset_vector+0x12a>
 174:	a011                	j	178 <reset_vector+0x12c>
 176:	a019                	j	17c <reset_vector+0x130>
 178:	03c0006f          	j	1b4 <fail>
 17c:	00600193          	li	gp,6
 180:	00000313          	li	t1,0
 184:	00000297          	auipc	t0,0x0
 188:	00c28293          	addi	t0,t0,12 # 190 <reset_vector+0x144>
 18c:	00000363          	beqz	zero,192 <reset_vector+0x146>
 190:	a011                	j	194 <reset_vector+0x148>
 192:	a019                	j	198 <reset_vector+0x14c>
 194:	0200006f          	j	1b4 <fail>
 198:	00700193          	li	gp,7
 19c:	00001563          	bnez	zero,1a6 <reset_vector+0x15a>
 1a0:	00c0006f          	j	1ac <reset_vector+0x160>
 1a4:	a009                	j	1a6 <reset_vector+0x15a>
 1a6:	a009                	j	1a8 <reset_vector+0x15c>
 1a8:	00c0006f          	j	1b4 <fail>
 1ac:	01c0006f          	j	1c8 <pass>
 1b0:	00301c63          	bne	zero,gp,1c8 <pass>

000001b4 <fail>:
 1b4:	0ff0000f          	fence
 1b8:	00018063          	beqz	gp,1b8 <fail+0x4>
 1bc:	00119193          	slli	gp,gp,0x1
 1c0:	0011e193          	ori	gp,gp,1
 1c4:	00000073          	ecall

000001c8 <pass>:
 1c8:	0ff0000f          	fence
 1cc:	00100193          	li	gp,1
 1d0:	00000073          	ecall

000001d4 <stvec_handler>:
 1d4:	00200513          	li	a0,2
 1d8:	02a18063          	beq	gp,a0,1f8 <stvec_handler+0x24>
 1dc:	00400513          	li	a0,4
 1e0:	00a18c63          	beq	gp,a0,1f8 <stvec_handler+0x24>
 1e4:	00500513          	li	a0,5
 1e8:	00a18863          	beq	gp,a0,1f8 <stvec_handler+0x24>
 1ec:	00600513          	li	a0,6
 1f0:	00a18463          	beq	gp,a0,1f8 <stvec_handler+0x24>
 1f4:	fc1ff06f          	j	1b4 <fail>
 1f8:	fa031ee3          	bnez	t1,1b4 <fail>
 1fc:	00000593          	li	a1,0
 200:	14202573          	csrr	a0,scause
 204:	fab518e3          	bne	a0,a1,1b4 <fail>
 208:	141025f3          	csrr	a1,sepc
 20c:	00458593          	addi	a1,a1,4
 210:	fab292e3          	bne	t0,a1,1b4 <fail>
 214:	14302573          	csrr	a0,sbadaddr
 218:	00050663          	beqz	a0,224 <stvec_handler+0x50>
 21c:	ffe50513          	addi	a0,a0,-2
 220:	f8551ae3          	bne	a0,t0,1b4 <fail>
 224:	00c58593          	addi	a1,a1,12
 228:	14159073          	csrw	sepc,a1
 22c:	10200073          	sret
 230:	c0001073          	unimp
 234:	0000                	unimp
 236:	0000                	unimp
 238:	0000                	unimp
 23a:	0000                	unimp
 23c:	0000                	unimp
 23e:	0000                	unimp
 240:	0000                	unimp
 242:	0000                	unimp
