
rv32ui-p-andi:     file format elf32-littleriscv


Disassembly of section .text.init:

00000000 <_start>:
   0:	04c0006f          	j	4c <reset_vector>

00000004 <trap_vector>:
   4:	34202f73          	csrr	t5,mcause
   8:	00800f93          	li	t6,8
   c:	03ff0a63          	beq	t5,t6,40 <write_tohost>
  10:	00900f93          	li	t6,9
  14:	03ff0663          	beq	t5,t6,40 <write_tohost>
  18:	00b00f93          	li	t6,11
  1c:	03ff0263          	beq	t5,t6,40 <write_tohost>
  20:	00000f17          	auipc	t5,0x0
  24:	fe0f0f13          	addi	t5,t5,-32 # 0 <_start>
  28:	000f0463          	beqz	t5,30 <trap_vector+0x2c>
  2c:	000f0067          	jr	t5
  30:	34202f73          	csrr	t5,mcause
  34:	000f5463          	bgez	t5,3c <handle_exception>
  38:	0040006f          	j	3c <handle_exception>

0000003c <handle_exception>:
  3c:	5391e193          	ori	gp,gp,1337

00000040 <write_tohost>:
  40:	00001f17          	auipc	t5,0x1
  44:	fc3f2023          	sw	gp,-64(t5) # 1000 <tohost>
  48:	ff9ff06f          	j	40 <write_tohost>

0000004c <reset_vector>:
  4c:	f1402573          	csrr	a0,mhartid
  50:	00051063          	bnez	a0,50 <reset_vector+0x4>
  54:	00000297          	auipc	t0,0x0
  58:	01028293          	addi	t0,t0,16 # 64 <reset_vector+0x18>
  5c:	30529073          	csrw	mtvec,t0
  60:	18005073          	csrwi	satp,0
  64:	00000297          	auipc	t0,0x0
  68:	01c28293          	addi	t0,t0,28 # 80 <reset_vector+0x34>
  6c:	30529073          	csrw	mtvec,t0
  70:	fff00293          	li	t0,-1
  74:	3b029073          	csrw	pmpaddr0,t0
  78:	01f00293          	li	t0,31
  7c:	3a029073          	csrw	pmpcfg0,t0
  80:	00000297          	auipc	t0,0x0
  84:	01828293          	addi	t0,t0,24 # 98 <reset_vector+0x4c>
  88:	30529073          	csrw	mtvec,t0
  8c:	30205073          	csrwi	medeleg,0
  90:	30305073          	csrwi	mideleg,0
  94:	30405073          	csrwi	mie,0
  98:	00000193          	li	gp,0
  9c:	00000297          	auipc	t0,0x0
  a0:	f6828293          	addi	t0,t0,-152 # 4 <trap_vector>
  a4:	30529073          	csrw	mtvec,t0
  a8:	00100513          	li	a0,1
  ac:	01f51513          	slli	a0,a0,0x1f
  b0:	00054863          	bltz	a0,c0 <reset_vector+0x74>
  b4:	0ff0000f          	fence
  b8:	00100193          	li	gp,1
  bc:	00000073          	ecall
  c0:	00000297          	auipc	t0,0x0
  c4:	f4028293          	addi	t0,t0,-192 # 0 <_start>
  c8:	00028e63          	beqz	t0,e4 <reset_vector+0x98>
  cc:	10529073          	csrw	stvec,t0
  d0:	0000b2b7          	lui	t0,0xb
  d4:	10928293          	addi	t0,t0,265 # b109 <_end+0x9109>
  d8:	30229073          	csrw	medeleg,t0
  dc:	30202373          	csrr	t1,medeleg
  e0:	f4629ee3          	bne	t0,t1,3c <handle_exception>
  e4:	30005073          	csrwi	mstatus,0
  e8:	00000297          	auipc	t0,0x0
  ec:	01428293          	addi	t0,t0,20 # fc <test_2>
  f0:	34129073          	csrw	mepc,t0
  f4:	f1402573          	csrr	a0,mhartid
  f8:	30200073          	mret

000000fc <test_2>:
  fc:	ff0100b7          	lui	ra,0xff010
 100:	f0008093          	addi	ra,ra,-256 # ff00ff00 <_end+0xff00df00>
 104:	f0f0ff13          	andi	t5,ra,-241
 108:	ff010eb7          	lui	t4,0xff010
 10c:	f00e8e93          	addi	t4,t4,-256 # ff00ff00 <_end+0xff00df00>
 110:	00200193          	li	gp,2
 114:	1bdf1463          	bne	t5,t4,2bc <fail>

00000118 <test_3>:
 118:	0ff010b7          	lui	ra,0xff01
 11c:	ff008093          	addi	ra,ra,-16 # ff00ff0 <_end+0xfefeff0>
 120:	0f00ff13          	andi	t5,ra,240
 124:	0f000e93          	li	t4,240
 128:	00300193          	li	gp,3
 12c:	19df1863          	bne	t5,t4,2bc <fail>

00000130 <test_4>:
 130:	00ff00b7          	lui	ra,0xff0
 134:	0ff08093          	addi	ra,ra,255 # ff00ff <_end+0xfee0ff>
 138:	70f0ff13          	andi	t5,ra,1807
 13c:	00f00e93          	li	t4,15
 140:	00400193          	li	gp,4
 144:	17df1c63          	bne	t5,t4,2bc <fail>

00000148 <test_5>:
 148:	f00ff0b7          	lui	ra,0xf00ff
 14c:	00f08093          	addi	ra,ra,15 # f00ff00f <_end+0xf00fd00f>
 150:	0f00ff13          	andi	t5,ra,240
 154:	00000e93          	li	t4,0
 158:	00500193          	li	gp,5
 15c:	17df1063          	bne	t5,t4,2bc <fail>

00000160 <test_6>:
 160:	ff0100b7          	lui	ra,0xff010
 164:	f0008093          	addi	ra,ra,-256 # ff00ff00 <_end+0xff00df00>
 168:	0f00f093          	andi	ra,ra,240
 16c:	00000e93          	li	t4,0
 170:	00600193          	li	gp,6
 174:	15d09463          	bne	ra,t4,2bc <fail>

00000178 <test_7>:
 178:	00000213          	li	tp,0
 17c:	0ff010b7          	lui	ra,0xff01
 180:	ff008093          	addi	ra,ra,-16 # ff00ff0 <_end+0xfefeff0>
 184:	70f0ff13          	andi	t5,ra,1807
 188:	000f0313          	mv	t1,t5
 18c:	00120213          	addi	tp,tp,1 # 1 <_start+0x1>
 190:	00200293          	li	t0,2
 194:	fe5214e3          	bne	tp,t0,17c <test_7+0x4>
 198:	70000e93          	li	t4,1792
 19c:	00700193          	li	gp,7
 1a0:	11d31e63          	bne	t1,t4,2bc <fail>

000001a4 <test_8>:
 1a4:	00000213          	li	tp,0
 1a8:	00ff00b7          	lui	ra,0xff0
 1ac:	0ff08093          	addi	ra,ra,255 # ff00ff <_end+0xfee0ff>
 1b0:	0f00ff13          	andi	t5,ra,240
 1b4:	00000013          	nop
 1b8:	000f0313          	mv	t1,t5
 1bc:	00120213          	addi	tp,tp,1 # 1 <_start+0x1>
 1c0:	00200293          	li	t0,2
 1c4:	fe5212e3          	bne	tp,t0,1a8 <test_8+0x4>
 1c8:	0f000e93          	li	t4,240
 1cc:	00800193          	li	gp,8
 1d0:	0fd31663          	bne	t1,t4,2bc <fail>

000001d4 <test_9>:
 1d4:	00000213          	li	tp,0
 1d8:	f00ff0b7          	lui	ra,0xf00ff
 1dc:	00f08093          	addi	ra,ra,15 # f00ff00f <_end+0xf00fd00f>
 1e0:	f0f0ff13          	andi	t5,ra,-241
 1e4:	00000013          	nop
 1e8:	00000013          	nop
 1ec:	000f0313          	mv	t1,t5
 1f0:	00120213          	addi	tp,tp,1 # 1 <_start+0x1>
 1f4:	00200293          	li	t0,2
 1f8:	fe5210e3          	bne	tp,t0,1d8 <test_9+0x4>
 1fc:	f00ffeb7          	lui	t4,0xf00ff
 200:	00fe8e93          	addi	t4,t4,15 # f00ff00f <_end+0xf00fd00f>
 204:	00900193          	li	gp,9
 208:	0bd31a63          	bne	t1,t4,2bc <fail>

0000020c <test_10>:
 20c:	00000213          	li	tp,0
 210:	0ff010b7          	lui	ra,0xff01
 214:	ff008093          	addi	ra,ra,-16 # ff00ff0 <_end+0xfefeff0>
 218:	70f0ff13          	andi	t5,ra,1807
 21c:	00120213          	addi	tp,tp,1 # 1 <_start+0x1>
 220:	00200293          	li	t0,2
 224:	fe5216e3          	bne	tp,t0,210 <test_10+0x4>
 228:	70000e93          	li	t4,1792
 22c:	00a00193          	li	gp,10
 230:	09df1663          	bne	t5,t4,2bc <fail>

00000234 <test_11>:
 234:	00000213          	li	tp,0
 238:	00ff00b7          	lui	ra,0xff0
 23c:	0ff08093          	addi	ra,ra,255 # ff00ff <_end+0xfee0ff>
 240:	00000013          	nop
 244:	0f00ff13          	andi	t5,ra,240
 248:	00120213          	addi	tp,tp,1 # 1 <_start+0x1>
 24c:	00200293          	li	t0,2
 250:	fe5214e3          	bne	tp,t0,238 <test_11+0x4>
 254:	0f000e93          	li	t4,240
 258:	00b00193          	li	gp,11
 25c:	07df1063          	bne	t5,t4,2bc <fail>

00000260 <test_12>:
 260:	00000213          	li	tp,0
 264:	f00ff0b7          	lui	ra,0xf00ff
 268:	00f08093          	addi	ra,ra,15 # f00ff00f <_end+0xf00fd00f>
 26c:	00000013          	nop
 270:	00000013          	nop
 274:	70f0ff13          	andi	t5,ra,1807
 278:	00120213          	addi	tp,tp,1 # 1 <_start+0x1>
 27c:	00200293          	li	t0,2
 280:	fe5212e3          	bne	tp,t0,264 <test_12+0x4>
 284:	00f00e93          	li	t4,15
 288:	00c00193          	li	gp,12
 28c:	03df1863          	bne	t5,t4,2bc <fail>

00000290 <test_13>:
 290:	0f007093          	andi	ra,zero,240
 294:	00000e93          	li	t4,0
 298:	00d00193          	li	gp,13
 29c:	03d09063          	bne	ra,t4,2bc <fail>

000002a0 <test_14>:
 2a0:	00ff00b7          	lui	ra,0xff0
 2a4:	0ff08093          	addi	ra,ra,255 # ff00ff <_end+0xfee0ff>
 2a8:	70f0f013          	andi	zero,ra,1807
 2ac:	00000e93          	li	t4,0
 2b0:	00e00193          	li	gp,14
 2b4:	01d01463          	bne	zero,t4,2bc <fail>
 2b8:	00301c63          	bne	zero,gp,2d0 <pass>

000002bc <fail>:
 2bc:	0ff0000f          	fence
 2c0:	00018063          	beqz	gp,2c0 <fail+0x4>
 2c4:	00119193          	slli	gp,gp,0x1
 2c8:	0011e193          	ori	gp,gp,1
 2cc:	00000073          	ecall

000002d0 <pass>:
 2d0:	0ff0000f          	fence
 2d4:	00100193          	li	gp,1
 2d8:	00000073          	ecall
 2dc:	c0001073          	unimp
 2e0:	0000                	unimp
 2e2:	0000                	unimp
 2e4:	0000                	unimp
 2e6:	0000                	unimp
 2e8:	0000                	unimp
 2ea:	0000                	unimp
 2ec:	0000                	unimp
 2ee:	0000                	unimp
 2f0:	0000                	unimp
 2f2:	0000                	unimp
 2f4:	0000                	unimp
 2f6:	0000                	unimp
 2f8:	0000                	unimp
 2fa:	0000                	unimp
 2fc:	0000                	unimp
 2fe:	0000                	unimp
 300:	0000                	unimp
 302:	0000                	unimp
