
rv32um-p-rem:     file format elf32-littleriscv


Disassembly of section .text.init:

00000000 <_start>:
   0:	04c0006f          	j	4c <reset_vector>

00000004 <trap_vector>:
   4:	34202f73          	csrr	t5,mcause
   8:	00800f93          	li	t6,8
   c:	03ff0a63          	beq	t5,t6,40 <write_tohost>
  10:	00900f93          	li	t6,9
  14:	03ff0663          	beq	t5,t6,40 <write_tohost>
  18:	00b00f93          	li	t6,11
  1c:	03ff0263          	beq	t5,t6,40 <write_tohost>
  20:	00000f17          	auipc	t5,0x0
  24:	fe0f0f13          	addi	t5,t5,-32 # 0 <_start>
  28:	000f0463          	beqz	t5,30 <trap_vector+0x2c>
  2c:	000f0067          	jr	t5
  30:	34202f73          	csrr	t5,mcause
  34:	000f5463          	bgez	t5,3c <handle_exception>
  38:	0040006f          	j	3c <handle_exception>

0000003c <handle_exception>:
  3c:	5391e193          	ori	gp,gp,1337

00000040 <write_tohost>:
  40:	00001f17          	auipc	t5,0x1
  44:	fc3f2023          	sw	gp,-64(t5) # 1000 <tohost>
  48:	ff9ff06f          	j	40 <write_tohost>

0000004c <reset_vector>:
  4c:	f1402573          	csrr	a0,mhartid
  50:	00051063          	bnez	a0,50 <reset_vector+0x4>
  54:	00000297          	auipc	t0,0x0
  58:	01028293          	addi	t0,t0,16 # 64 <reset_vector+0x18>
  5c:	30529073          	csrw	mtvec,t0
  60:	18005073          	csrwi	satp,0
  64:	00000297          	auipc	t0,0x0
  68:	01c28293          	addi	t0,t0,28 # 80 <reset_vector+0x34>
  6c:	30529073          	csrw	mtvec,t0
  70:	fff00293          	li	t0,-1
  74:	3b029073          	csrw	pmpaddr0,t0
  78:	01f00293          	li	t0,31
  7c:	3a029073          	csrw	pmpcfg0,t0
  80:	00000297          	auipc	t0,0x0
  84:	01828293          	addi	t0,t0,24 # 98 <reset_vector+0x4c>
  88:	30529073          	csrw	mtvec,t0
  8c:	30205073          	csrwi	medeleg,0
  90:	30305073          	csrwi	mideleg,0
  94:	30405073          	csrwi	mie,0
  98:	00000193          	li	gp,0
  9c:	00000297          	auipc	t0,0x0
  a0:	f6828293          	addi	t0,t0,-152 # 4 <trap_vector>
  a4:	30529073          	csrw	mtvec,t0
  a8:	00100513          	li	a0,1
  ac:	01f51513          	slli	a0,a0,0x1f
  b0:	00054863          	bltz	a0,c0 <reset_vector+0x74>
  b4:	0ff0000f          	fence
  b8:	00100193          	li	gp,1
  bc:	00000073          	ecall
  c0:	00000297          	auipc	t0,0x0
  c4:	f4028293          	addi	t0,t0,-192 # 0 <_start>
  c8:	00028e63          	beqz	t0,e4 <reset_vector+0x98>
  cc:	10529073          	csrw	stvec,t0
  d0:	0000b2b7          	lui	t0,0xb
  d4:	10928293          	addi	t0,t0,265 # b109 <_end+0x9109>
  d8:	30229073          	csrw	medeleg,t0
  dc:	30202373          	csrr	t1,medeleg
  e0:	f4629ee3          	bne	t0,t1,3c <handle_exception>
  e4:	30005073          	csrwi	mstatus,0
  e8:	00000297          	auipc	t0,0x0
  ec:	01428293          	addi	t0,t0,20 # fc <test_2>
  f0:	34129073          	csrw	mepc,t0
  f4:	f1402573          	csrr	a0,mhartid
  f8:	30200073          	mret

000000fc <test_2>:
  fc:	01400093          	li	ra,20
 100:	00600113          	li	sp,6
 104:	0220ef33          	rem	t5,ra,sp
 108:	00200e93          	li	t4,2
 10c:	00200193          	li	gp,2
 110:	0ddf1463          	bne	t5,t4,1d8 <fail>

00000114 <test_3>:
 114:	fec00093          	li	ra,-20
 118:	00600113          	li	sp,6
 11c:	0220ef33          	rem	t5,ra,sp
 120:	ffe00e93          	li	t4,-2
 124:	00300193          	li	gp,3
 128:	0bdf1863          	bne	t5,t4,1d8 <fail>

0000012c <test_4>:
 12c:	01400093          	li	ra,20
 130:	ffa00113          	li	sp,-6
 134:	0220ef33          	rem	t5,ra,sp
 138:	00200e93          	li	t4,2
 13c:	00400193          	li	gp,4
 140:	09df1c63          	bne	t5,t4,1d8 <fail>

00000144 <test_5>:
 144:	fec00093          	li	ra,-20
 148:	ffa00113          	li	sp,-6
 14c:	0220ef33          	rem	t5,ra,sp
 150:	ffe00e93          	li	t4,-2
 154:	00500193          	li	gp,5
 158:	09df1063          	bne	t5,t4,1d8 <fail>

0000015c <test_6>:
 15c:	800000b7          	lui	ra,0x80000
 160:	00100113          	li	sp,1
 164:	0220ef33          	rem	t5,ra,sp
 168:	00000e93          	li	t4,0
 16c:	00600193          	li	gp,6
 170:	07df1463          	bne	t5,t4,1d8 <fail>

00000174 <test_7>:
 174:	800000b7          	lui	ra,0x80000
 178:	fff00113          	li	sp,-1
 17c:	0220ef33          	rem	t5,ra,sp
 180:	00000e93          	li	t4,0
 184:	00700193          	li	gp,7
 188:	05df1863          	bne	t5,t4,1d8 <fail>

0000018c <test_8>:
 18c:	800000b7          	lui	ra,0x80000
 190:	00000113          	li	sp,0
 194:	0220ef33          	rem	t5,ra,sp
 198:	80000eb7          	lui	t4,0x80000
 19c:	00800193          	li	gp,8
 1a0:	03df1c63          	bne	t5,t4,1d8 <fail>

000001a4 <test_9>:
 1a4:	00100093          	li	ra,1
 1a8:	00000113          	li	sp,0
 1ac:	0220ef33          	rem	t5,ra,sp
 1b0:	00100e93          	li	t4,1
 1b4:	00900193          	li	gp,9
 1b8:	03df1063          	bne	t5,t4,1d8 <fail>

000001bc <test_10>:
 1bc:	00000093          	li	ra,0
 1c0:	00000113          	li	sp,0
 1c4:	0220ef33          	rem	t5,ra,sp
 1c8:	00000e93          	li	t4,0
 1cc:	00a00193          	li	gp,10
 1d0:	01df1463          	bne	t5,t4,1d8 <fail>
 1d4:	00301c63          	bne	zero,gp,1ec <pass>

000001d8 <fail>:
 1d8:	0ff0000f          	fence
 1dc:	00018063          	beqz	gp,1dc <fail+0x4>
 1e0:	00119193          	slli	gp,gp,0x1
 1e4:	0011e193          	ori	gp,gp,1
 1e8:	00000073          	ecall

000001ec <pass>:
 1ec:	0ff0000f          	fence
 1f0:	00100193          	li	gp,1
 1f4:	00000073          	ecall
 1f8:	c0001073          	unimp
 1fc:	0000                	unimp
 1fe:	0000                	unimp
 200:	0000                	unimp
 202:	0000                	unimp
