
rv32ui-p-bgeu:     file format elf32-littleriscv


Disassembly of section .text.init:

00000000 <_start>:
   0:	04c0006f          	j	4c <reset_vector>

00000004 <trap_vector>:
   4:	34202f73          	csrr	t5,mcause
   8:	00800f93          	li	t6,8
   c:	03ff0a63          	beq	t5,t6,40 <write_tohost>
  10:	00900f93          	li	t6,9
  14:	03ff0663          	beq	t5,t6,40 <write_tohost>
  18:	00b00f93          	li	t6,11
  1c:	03ff0263          	beq	t5,t6,40 <write_tohost>
  20:	00000f17          	auipc	t5,0x0
  24:	fe0f0f13          	addi	t5,t5,-32 # 0 <_start>
  28:	000f0463          	beqz	t5,30 <trap_vector+0x2c>
  2c:	000f0067          	jr	t5
  30:	34202f73          	csrr	t5,mcause
  34:	000f5463          	bgez	t5,3c <handle_exception>
  38:	0040006f          	j	3c <handle_exception>

0000003c <handle_exception>:
  3c:	5391e193          	ori	gp,gp,1337

00000040 <write_tohost>:
  40:	00001f17          	auipc	t5,0x1
  44:	fc3f2023          	sw	gp,-64(t5) # 1000 <tohost>
  48:	ff9ff06f          	j	40 <write_tohost>

0000004c <reset_vector>:
  4c:	f1402573          	csrr	a0,mhartid
  50:	00051063          	bnez	a0,50 <reset_vector+0x4>
  54:	00000297          	auipc	t0,0x0
  58:	01028293          	addi	t0,t0,16 # 64 <reset_vector+0x18>
  5c:	30529073          	csrw	mtvec,t0
  60:	18005073          	csrwi	satp,0
  64:	00000297          	auipc	t0,0x0
  68:	01c28293          	addi	t0,t0,28 # 80 <reset_vector+0x34>
  6c:	30529073          	csrw	mtvec,t0
  70:	fff00293          	li	t0,-1
  74:	3b029073          	csrw	pmpaddr0,t0
  78:	01f00293          	li	t0,31
  7c:	3a029073          	csrw	pmpcfg0,t0
  80:	00000297          	auipc	t0,0x0
  84:	01828293          	addi	t0,t0,24 # 98 <reset_vector+0x4c>
  88:	30529073          	csrw	mtvec,t0
  8c:	30205073          	csrwi	medeleg,0
  90:	30305073          	csrwi	mideleg,0
  94:	30405073          	csrwi	mie,0
  98:	00000193          	li	gp,0
  9c:	00000297          	auipc	t0,0x0
  a0:	f6828293          	addi	t0,t0,-152 # 4 <trap_vector>
  a4:	30529073          	csrw	mtvec,t0
  a8:	00100513          	li	a0,1
  ac:	01f51513          	slli	a0,a0,0x1f
  b0:	00054863          	bltz	a0,c0 <reset_vector+0x74>
  b4:	0ff0000f          	fence
  b8:	00100193          	li	gp,1
  bc:	00000073          	ecall
  c0:	00000297          	auipc	t0,0x0
  c4:	f4028293          	addi	t0,t0,-192 # 0 <_start>
  c8:	00028e63          	beqz	t0,e4 <reset_vector+0x98>
  cc:	10529073          	csrw	stvec,t0
  d0:	0000b2b7          	lui	t0,0xb
  d4:	10928293          	addi	t0,t0,265 # b109 <_end+0x9109>
  d8:	30229073          	csrw	medeleg,t0
  dc:	30202373          	csrr	t1,medeleg
  e0:	f4629ee3          	bne	t0,t1,3c <handle_exception>
  e4:	30005073          	csrwi	mstatus,0
  e8:	00000297          	auipc	t0,0x0
  ec:	01428293          	addi	t0,t0,20 # fc <test_2>
  f0:	34129073          	csrw	mepc,t0
  f4:	f1402573          	csrr	a0,mhartid
  f8:	30200073          	mret

000000fc <test_2>:
  fc:	00200193          	li	gp,2
 100:	00000093          	li	ra,0
 104:	00000113          	li	sp,0
 108:	0020f663          	bleu	sp,ra,114 <test_2+0x18>
 10c:	34301263          	bne	zero,gp,450 <fail>
 110:	00301663          	bne	zero,gp,11c <test_3>
 114:	fe20fee3          	bleu	sp,ra,110 <test_2+0x14>
 118:	32301c63          	bne	zero,gp,450 <fail>

0000011c <test_3>:
 11c:	00300193          	li	gp,3
 120:	00100093          	li	ra,1
 124:	00100113          	li	sp,1
 128:	0020f663          	bleu	sp,ra,134 <test_3+0x18>
 12c:	32301263          	bne	zero,gp,450 <fail>
 130:	00301663          	bne	zero,gp,13c <test_4>
 134:	fe20fee3          	bleu	sp,ra,130 <test_3+0x14>
 138:	30301c63          	bne	zero,gp,450 <fail>

0000013c <test_4>:
 13c:	00400193          	li	gp,4
 140:	fff00093          	li	ra,-1
 144:	fff00113          	li	sp,-1
 148:	0020f663          	bleu	sp,ra,154 <test_4+0x18>
 14c:	30301263          	bne	zero,gp,450 <fail>
 150:	00301663          	bne	zero,gp,15c <test_5>
 154:	fe20fee3          	bleu	sp,ra,150 <test_4+0x14>
 158:	2e301c63          	bne	zero,gp,450 <fail>

0000015c <test_5>:
 15c:	00500193          	li	gp,5
 160:	00100093          	li	ra,1
 164:	00000113          	li	sp,0
 168:	0020f663          	bleu	sp,ra,174 <test_5+0x18>
 16c:	2e301263          	bne	zero,gp,450 <fail>
 170:	00301663          	bne	zero,gp,17c <test_6>
 174:	fe20fee3          	bleu	sp,ra,170 <test_5+0x14>
 178:	2c301c63          	bne	zero,gp,450 <fail>

0000017c <test_6>:
 17c:	00600193          	li	gp,6
 180:	fff00093          	li	ra,-1
 184:	ffe00113          	li	sp,-2
 188:	0020f663          	bleu	sp,ra,194 <test_6+0x18>
 18c:	2c301263          	bne	zero,gp,450 <fail>
 190:	00301663          	bne	zero,gp,19c <test_7>
 194:	fe20fee3          	bleu	sp,ra,190 <test_6+0x14>
 198:	2a301c63          	bne	zero,gp,450 <fail>

0000019c <test_7>:
 19c:	00700193          	li	gp,7
 1a0:	fff00093          	li	ra,-1
 1a4:	00000113          	li	sp,0
 1a8:	0020f663          	bleu	sp,ra,1b4 <test_7+0x18>
 1ac:	2a301263          	bne	zero,gp,450 <fail>
 1b0:	00301663          	bne	zero,gp,1bc <test_8>
 1b4:	fe20fee3          	bleu	sp,ra,1b0 <test_7+0x14>
 1b8:	28301c63          	bne	zero,gp,450 <fail>

000001bc <test_8>:
 1bc:	00800193          	li	gp,8
 1c0:	00000093          	li	ra,0
 1c4:	00100113          	li	sp,1
 1c8:	0020f463          	bleu	sp,ra,1d0 <test_8+0x14>
 1cc:	00301463          	bne	zero,gp,1d4 <test_8+0x18>
 1d0:	28301063          	bne	zero,gp,450 <fail>
 1d4:	fe20fee3          	bleu	sp,ra,1d0 <test_8+0x14>

000001d8 <test_9>:
 1d8:	00900193          	li	gp,9
 1dc:	ffe00093          	li	ra,-2
 1e0:	fff00113          	li	sp,-1
 1e4:	0020f463          	bleu	sp,ra,1ec <test_9+0x14>
 1e8:	00301463          	bne	zero,gp,1f0 <test_9+0x18>
 1ec:	26301263          	bne	zero,gp,450 <fail>
 1f0:	fe20fee3          	bleu	sp,ra,1ec <test_9+0x14>

000001f4 <test_10>:
 1f4:	00a00193          	li	gp,10
 1f8:	00000093          	li	ra,0
 1fc:	fff00113          	li	sp,-1
 200:	0020f463          	bleu	sp,ra,208 <test_10+0x14>
 204:	00301463          	bne	zero,gp,20c <test_10+0x18>
 208:	24301463          	bne	zero,gp,450 <fail>
 20c:	fe20fee3          	bleu	sp,ra,208 <test_10+0x14>

00000210 <test_11>:
 210:	00b00193          	li	gp,11
 214:	800000b7          	lui	ra,0x80000
 218:	fff08093          	addi	ra,ra,-1 # 7fffffff <_end+0x7fffdfff>
 21c:	80000137          	lui	sp,0x80000
 220:	0020f463          	bleu	sp,ra,228 <test_11+0x18>
 224:	00301463          	bne	zero,gp,22c <test_11+0x1c>
 228:	22301463          	bne	zero,gp,450 <fail>
 22c:	fe20fee3          	bleu	sp,ra,228 <test_11+0x18>

00000230 <test_12>:
 230:	00c00193          	li	gp,12
 234:	00000213          	li	tp,0
 238:	f00000b7          	lui	ra,0xf0000
 23c:	fff08093          	addi	ra,ra,-1 # efffffff <_end+0xefffdfff>
 240:	f0000137          	lui	sp,0xf0000
 244:	2020f663          	bleu	sp,ra,450 <fail>
 248:	00120213          	addi	tp,tp,1 # 1 <_start+0x1>
 24c:	00200293          	li	t0,2
 250:	fe5214e3          	bne	tp,t0,238 <test_12+0x8>

00000254 <test_13>:
 254:	00d00193          	li	gp,13
 258:	00000213          	li	tp,0
 25c:	f00000b7          	lui	ra,0xf0000
 260:	fff08093          	addi	ra,ra,-1 # efffffff <_end+0xefffdfff>
 264:	f0000137          	lui	sp,0xf0000
 268:	00000013          	nop
 26c:	1e20f263          	bleu	sp,ra,450 <fail>
 270:	00120213          	addi	tp,tp,1 # 1 <_start+0x1>
 274:	00200293          	li	t0,2
 278:	fe5212e3          	bne	tp,t0,25c <test_13+0x8>

0000027c <test_14>:
 27c:	00e00193          	li	gp,14
 280:	00000213          	li	tp,0
 284:	f00000b7          	lui	ra,0xf0000
 288:	fff08093          	addi	ra,ra,-1 # efffffff <_end+0xefffdfff>
 28c:	f0000137          	lui	sp,0xf0000
 290:	00000013          	nop
 294:	00000013          	nop
 298:	1a20fc63          	bleu	sp,ra,450 <fail>
 29c:	00120213          	addi	tp,tp,1 # 1 <_start+0x1>
 2a0:	00200293          	li	t0,2
 2a4:	fe5210e3          	bne	tp,t0,284 <test_14+0x8>

000002a8 <test_15>:
 2a8:	00f00193          	li	gp,15
 2ac:	00000213          	li	tp,0
 2b0:	f00000b7          	lui	ra,0xf0000
 2b4:	fff08093          	addi	ra,ra,-1 # efffffff <_end+0xefffdfff>
 2b8:	00000013          	nop
 2bc:	f0000137          	lui	sp,0xf0000
 2c0:	1820f863          	bleu	sp,ra,450 <fail>
 2c4:	00120213          	addi	tp,tp,1 # 1 <_start+0x1>
 2c8:	00200293          	li	t0,2
 2cc:	fe5212e3          	bne	tp,t0,2b0 <test_15+0x8>

000002d0 <test_16>:
 2d0:	01000193          	li	gp,16
 2d4:	00000213          	li	tp,0
 2d8:	f00000b7          	lui	ra,0xf0000
 2dc:	fff08093          	addi	ra,ra,-1 # efffffff <_end+0xefffdfff>
 2e0:	00000013          	nop
 2e4:	f0000137          	lui	sp,0xf0000
 2e8:	00000013          	nop
 2ec:	1620f263          	bleu	sp,ra,450 <fail>
 2f0:	00120213          	addi	tp,tp,1 # 1 <_start+0x1>
 2f4:	00200293          	li	t0,2
 2f8:	fe5210e3          	bne	tp,t0,2d8 <test_16+0x8>

000002fc <test_17>:
 2fc:	01100193          	li	gp,17
 300:	00000213          	li	tp,0
 304:	f00000b7          	lui	ra,0xf0000
 308:	fff08093          	addi	ra,ra,-1 # efffffff <_end+0xefffdfff>
 30c:	00000013          	nop
 310:	00000013          	nop
 314:	f0000137          	lui	sp,0xf0000
 318:	1220fc63          	bleu	sp,ra,450 <fail>
 31c:	00120213          	addi	tp,tp,1 # 1 <_start+0x1>
 320:	00200293          	li	t0,2
 324:	fe5210e3          	bne	tp,t0,304 <test_17+0x8>

00000328 <test_18>:
 328:	01200193          	li	gp,18
 32c:	00000213          	li	tp,0
 330:	f00000b7          	lui	ra,0xf0000
 334:	fff08093          	addi	ra,ra,-1 # efffffff <_end+0xefffdfff>
 338:	f0000137          	lui	sp,0xf0000
 33c:	1020fa63          	bleu	sp,ra,450 <fail>
 340:	00120213          	addi	tp,tp,1 # 1 <_start+0x1>
 344:	00200293          	li	t0,2
 348:	fe5214e3          	bne	tp,t0,330 <test_18+0x8>

0000034c <test_19>:
 34c:	01300193          	li	gp,19
 350:	00000213          	li	tp,0
 354:	f00000b7          	lui	ra,0xf0000
 358:	fff08093          	addi	ra,ra,-1 # efffffff <_end+0xefffdfff>
 35c:	f0000137          	lui	sp,0xf0000
 360:	00000013          	nop
 364:	0e20f663          	bleu	sp,ra,450 <fail>
 368:	00120213          	addi	tp,tp,1 # 1 <_start+0x1>
 36c:	00200293          	li	t0,2
 370:	fe5212e3          	bne	tp,t0,354 <test_19+0x8>

00000374 <test_20>:
 374:	01400193          	li	gp,20
 378:	00000213          	li	tp,0
 37c:	f00000b7          	lui	ra,0xf0000
 380:	fff08093          	addi	ra,ra,-1 # efffffff <_end+0xefffdfff>
 384:	f0000137          	lui	sp,0xf0000
 388:	00000013          	nop
 38c:	00000013          	nop
 390:	0c20f063          	bleu	sp,ra,450 <fail>
 394:	00120213          	addi	tp,tp,1 # 1 <_start+0x1>
 398:	00200293          	li	t0,2
 39c:	fe5210e3          	bne	tp,t0,37c <test_20+0x8>

000003a0 <test_21>:
 3a0:	01500193          	li	gp,21
 3a4:	00000213          	li	tp,0
 3a8:	f00000b7          	lui	ra,0xf0000
 3ac:	fff08093          	addi	ra,ra,-1 # efffffff <_end+0xefffdfff>
 3b0:	00000013          	nop
 3b4:	f0000137          	lui	sp,0xf0000
 3b8:	0820fc63          	bleu	sp,ra,450 <fail>
 3bc:	00120213          	addi	tp,tp,1 # 1 <_start+0x1>
 3c0:	00200293          	li	t0,2
 3c4:	fe5212e3          	bne	tp,t0,3a8 <test_21+0x8>

000003c8 <test_22>:
 3c8:	01600193          	li	gp,22
 3cc:	00000213          	li	tp,0
 3d0:	f00000b7          	lui	ra,0xf0000
 3d4:	fff08093          	addi	ra,ra,-1 # efffffff <_end+0xefffdfff>
 3d8:	00000013          	nop
 3dc:	f0000137          	lui	sp,0xf0000
 3e0:	00000013          	nop
 3e4:	0620f663          	bleu	sp,ra,450 <fail>
 3e8:	00120213          	addi	tp,tp,1 # 1 <_start+0x1>
 3ec:	00200293          	li	t0,2
 3f0:	fe5210e3          	bne	tp,t0,3d0 <test_22+0x8>

000003f4 <test_23>:
 3f4:	01700193          	li	gp,23
 3f8:	00000213          	li	tp,0
 3fc:	f00000b7          	lui	ra,0xf0000
 400:	fff08093          	addi	ra,ra,-1 # efffffff <_end+0xefffdfff>
 404:	00000013          	nop
 408:	00000013          	nop
 40c:	f0000137          	lui	sp,0xf0000
 410:	0420f063          	bleu	sp,ra,450 <fail>
 414:	00120213          	addi	tp,tp,1 # 1 <_start+0x1>
 418:	00200293          	li	t0,2
 41c:	fe5210e3          	bne	tp,t0,3fc <test_23+0x8>

00000420 <test_24>:
 420:	00100093          	li	ra,1
 424:	0000fa63          	bleu	zero,ra,438 <test_24+0x18>
 428:	00108093          	addi	ra,ra,1
 42c:	00108093          	addi	ra,ra,1
 430:	00108093          	addi	ra,ra,1
 434:	00108093          	addi	ra,ra,1
 438:	00108093          	addi	ra,ra,1
 43c:	00108093          	addi	ra,ra,1
 440:	00300e93          	li	t4,3
 444:	01800193          	li	gp,24
 448:	01d09463          	bne	ra,t4,450 <fail>
 44c:	00301c63          	bne	zero,gp,464 <pass>

00000450 <fail>:
 450:	0ff0000f          	fence
 454:	00018063          	beqz	gp,454 <fail+0x4>
 458:	00119193          	slli	gp,gp,0x1
 45c:	0011e193          	ori	gp,gp,1
 460:	00000073          	ecall

00000464 <pass>:
 464:	0ff0000f          	fence
 468:	00100193          	li	gp,1
 46c:	00000073          	ecall
 470:	c0001073          	unimp
 474:	0000                	unimp
 476:	0000                	unimp
 478:	0000                	unimp
 47a:	0000                	unimp
 47c:	0000                	unimp
 47e:	0000                	unimp
 480:	0000                	unimp
 482:	0000                	unimp
