
rv32ui-p-fence_i:     file format elf32-littleriscv


Disassembly of section .text.init:

00000000 <_start>:
   0:	04c0006f          	j	4c <reset_vector>

00000004 <trap_vector>:
   4:	34202f73          	csrr	t5,mcause
   8:	00800f93          	li	t6,8
   c:	03ff0a63          	beq	t5,t6,40 <write_tohost>
  10:	00900f93          	li	t6,9
  14:	03ff0663          	beq	t5,t6,40 <write_tohost>
  18:	00b00f93          	li	t6,11
  1c:	03ff0263          	beq	t5,t6,40 <write_tohost>
  20:	00000f17          	auipc	t5,0x0
  24:	fe0f0f13          	addi	t5,t5,-32 # 0 <_start>
  28:	000f0463          	beqz	t5,30 <trap_vector+0x2c>
  2c:	000f0067          	jr	t5
  30:	34202f73          	csrr	t5,mcause
  34:	000f5463          	bgez	t5,3c <handle_exception>
  38:	0040006f          	j	3c <handle_exception>

0000003c <handle_exception>:
  3c:	5391e193          	ori	gp,gp,1337

00000040 <write_tohost>:
  40:	00001f17          	auipc	t5,0x1
  44:	fc3f2023          	sw	gp,-64(t5) # 1000 <tohost>
  48:	ff9ff06f          	j	40 <write_tohost>

0000004c <reset_vector>:
  4c:	f1402573          	csrr	a0,mhartid
  50:	00051063          	bnez	a0,50 <reset_vector+0x4>
  54:	00000297          	auipc	t0,0x0
  58:	01028293          	addi	t0,t0,16 # 64 <reset_vector+0x18>
  5c:	30529073          	csrw	mtvec,t0
  60:	18005073          	csrwi	satp,0
  64:	00000297          	auipc	t0,0x0
  68:	01c28293          	addi	t0,t0,28 # 80 <reset_vector+0x34>
  6c:	30529073          	csrw	mtvec,t0
  70:	fff00293          	li	t0,-1
  74:	3b029073          	csrw	pmpaddr0,t0
  78:	01f00293          	li	t0,31
  7c:	3a029073          	csrw	pmpcfg0,t0
  80:	00000297          	auipc	t0,0x0
  84:	01828293          	addi	t0,t0,24 # 98 <reset_vector+0x4c>
  88:	30529073          	csrw	mtvec,t0
  8c:	30205073          	csrwi	medeleg,0
  90:	30305073          	csrwi	mideleg,0
  94:	30405073          	csrwi	mie,0
  98:	00000193          	li	gp,0
  9c:	00000297          	auipc	t0,0x0
  a0:	f6828293          	addi	t0,t0,-152 # 4 <trap_vector>
  a4:	30529073          	csrw	mtvec,t0
  a8:	00100513          	li	a0,1
  ac:	01f51513          	slli	a0,a0,0x1f
  b0:	00054863          	bltz	a0,c0 <reset_vector+0x74>
  b4:	0ff0000f          	fence
  b8:	00100193          	li	gp,1
  bc:	00000073          	ecall
  c0:	00000297          	auipc	t0,0x0
  c4:	f4028293          	addi	t0,t0,-192 # 0 <_start>
  c8:	00028e63          	beqz	t0,e4 <reset_vector+0x98>
  cc:	10529073          	csrw	stvec,t0
  d0:	0000b2b7          	lui	t0,0xb
  d4:	10928293          	addi	t0,t0,265 # b109 <_end+0x90f9>
  d8:	30229073          	csrw	medeleg,t0
  dc:	30202373          	csrr	t1,medeleg
  e0:	f4629ee3          	bne	t0,t1,3c <handle_exception>
  e4:	30005073          	csrwi	mstatus,0
  e8:	00000297          	auipc	t0,0x0
  ec:	01428293          	addi	t0,t0,20 # fc <reset_vector+0xb0>
  f0:	34129073          	csrw	mepc,t0
  f4:	f1402573          	csrr	a0,mhartid
  f8:	30200073          	mret
  fc:	06f00693          	li	a3,111
 100:	00002517          	auipc	a0,0x2
 104:	f0051503          	lh	a0,-256(a0) # 2000 <begin_signature>
 108:	00002597          	auipc	a1,0x2
 10c:	efa59583          	lh	a1,-262(a1) # 2002 <begin_signature+0x2>
 110:	00000013          	nop
 114:	00000013          	nop
 118:	00000013          	nop
 11c:	00000013          	nop
 120:	00000013          	nop
 124:	00000013          	nop
 128:	00000013          	nop
 12c:	00000013          	nop
 130:	00000013          	nop
 134:	00000013          	nop
 138:	00000013          	nop
 13c:	00000013          	nop
 140:	00000297          	auipc	t0,0x0
 144:	00a29a23          	sh	a0,20(t0) # 154 <reset_vector+0x108>
 148:	00000297          	auipc	t0,0x0
 14c:	00b29723          	sh	a1,14(t0) # 156 <reset_vector+0x10a>
 150:	0000100f          	fence.i
 154:	0de68693          	addi	a3,a3,222

00000158 <test_2>:
 158:	00000013          	nop
 15c:	1bc00e93          	li	t4,444
 160:	00200193          	li	gp,2
 164:	07d69a63          	bne	a3,t4,1d8 <fail>
 168:	06400713          	li	a4,100
 16c:	fff70713          	addi	a4,a4,-1
 170:	fe071ee3          	bnez	a4,16c <test_2+0x14>
 174:	00000297          	auipc	t0,0x0
 178:	04a29623          	sh	a0,76(t0) # 1c0 <test_2+0x68>
 17c:	00000297          	auipc	t0,0x0
 180:	04b29323          	sh	a1,70(t0) # 1c2 <test_2+0x6a>
 184:	0000100f          	fence.i
 188:	00000013          	nop
 18c:	00000013          	nop
 190:	00000013          	nop
 194:	00000013          	nop
 198:	00000013          	nop
 19c:	00000013          	nop
 1a0:	00000013          	nop
 1a4:	00000013          	nop
 1a8:	00000013          	nop
 1ac:	00000013          	nop
 1b0:	00000013          	nop
 1b4:	00000013          	nop
 1b8:	00000013          	nop
 1bc:	00000013          	nop
 1c0:	22b68693          	addi	a3,a3,555

000001c4 <test_3>:
 1c4:	00000013          	nop
 1c8:	30900e93          	li	t4,777
 1cc:	00300193          	li	gp,3
 1d0:	01d69463          	bne	a3,t4,1d8 <fail>
 1d4:	00301c63          	bne	zero,gp,1ec <pass>

000001d8 <fail>:
 1d8:	0ff0000f          	fence
 1dc:	00018063          	beqz	gp,1dc <fail+0x4>
 1e0:	00119193          	slli	gp,gp,0x1
 1e4:	0011e193          	ori	gp,gp,1
 1e8:	00000073          	ecall

000001ec <pass>:
 1ec:	0ff0000f          	fence
 1f0:	00100193          	li	gp,1
 1f4:	00000073          	ecall
 1f8:	c0001073          	unimp
 1fc:	0000                	unimp
 1fe:	0000                	unimp
 200:	0000                	unimp
 202:	0000                	unimp
 204:	0000                	unimp
 206:	0000                	unimp
 208:	0000                	unimp
 20a:	0000                	unimp
 20c:	0000                	unimp
 20e:	0000                	unimp
 210:	0000                	unimp
 212:	0000                	unimp
 214:	0000                	unimp
 216:	0000                	unimp
 218:	0000                	unimp
 21a:	0000                	unimp
 21c:	0000                	unimp
 21e:	0000                	unimp
 220:	0000                	unimp
 222:	0000                	unimp
 224:	0000                	unimp
 226:	0000                	unimp
 228:	0000                	unimp
 22a:	0000                	unimp
 22c:	0000                	unimp
 22e:	0000                	unimp
 230:	0000                	unimp
 232:	0000                	unimp
