
rv32si-p-scall:     file format elf32-littleriscv


Disassembly of section .text.init:

00000000 <_start>:
   0:	04c0006f          	j	4c <reset_vector>

00000004 <trap_vector>:
   4:	34202f73          	csrr	t5,mcause
   8:	00800f93          	li	t6,8
   c:	03ff0a63          	beq	t5,t6,40 <write_tohost>
  10:	00900f93          	li	t6,9
  14:	03ff0663          	beq	t5,t6,40 <write_tohost>
  18:	00b00f93          	li	t6,11
  1c:	03ff0263          	beq	t5,t6,40 <write_tohost>
  20:	00000f17          	auipc	t5,0x0
  24:	fe0f0f13          	addi	t5,t5,-32 # 0 <_start>
  28:	000f0463          	beqz	t5,30 <trap_vector+0x2c>
  2c:	000f0067          	jr	t5
  30:	34202f73          	csrr	t5,mcause
  34:	000f5463          	bgez	t5,3c <handle_exception>
  38:	0040006f          	j	3c <handle_exception>

0000003c <handle_exception>:
  3c:	5391e193          	ori	gp,gp,1337

00000040 <write_tohost>:
  40:	00001f17          	auipc	t5,0x1
  44:	fc3f2023          	sw	gp,-64(t5) # 1000 <tohost>
  48:	ff9ff06f          	j	40 <write_tohost>

0000004c <reset_vector>:
  4c:	f1402573          	csrr	a0,mhartid
  50:	00051063          	bnez	a0,50 <reset_vector+0x4>
  54:	00000297          	auipc	t0,0x0
  58:	01028293          	addi	t0,t0,16 # 64 <reset_vector+0x18>
  5c:	30529073          	csrw	mtvec,t0
  60:	18005073          	csrwi	satp,0
  64:	00000297          	auipc	t0,0x0
  68:	01c28293          	addi	t0,t0,28 # 80 <reset_vector+0x34>
  6c:	30529073          	csrw	mtvec,t0
  70:	fff00293          	li	t0,-1
  74:	3b029073          	csrw	pmpaddr0,t0
  78:	01f00293          	li	t0,31
  7c:	3a029073          	csrw	pmpcfg0,t0
  80:	00000297          	auipc	t0,0x0
  84:	01828293          	addi	t0,t0,24 # 98 <reset_vector+0x4c>
  88:	30529073          	csrw	mtvec,t0
  8c:	30205073          	csrwi	medeleg,0
  90:	30305073          	csrwi	mideleg,0
  94:	30405073          	csrwi	mie,0
  98:	00000193          	li	gp,0
  9c:	00000297          	auipc	t0,0x0
  a0:	f6828293          	addi	t0,t0,-152 # 4 <trap_vector>
  a4:	30529073          	csrw	mtvec,t0
  a8:	00100513          	li	a0,1
  ac:	01f51513          	slli	a0,a0,0x1f
  b0:	00054863          	bltz	a0,c0 <reset_vector+0x74>
  b4:	0ff0000f          	fence
  b8:	00100193          	li	gp,1
  bc:	00000073          	ecall
  c0:	00000297          	auipc	t0,0x0
  c4:	0a028293          	addi	t0,t0,160 # 160 <stvec_handler>
  c8:	00028e63          	beqz	t0,e4 <reset_vector+0x98>
  cc:	10529073          	csrw	stvec,t0
  d0:	0000b2b7          	lui	t0,0xb
  d4:	10928293          	addi	t0,t0,265 # b109 <_end+0x9109>
  d8:	30229073          	csrw	medeleg,t0
  dc:	30202373          	csrr	t1,medeleg
  e0:	f4629ee3          	bne	t0,t1,3c <handle_exception>
  e4:	30005073          	csrwi	mstatus,0
  e8:	00001537          	lui	a0,0x1
  ec:	80050513          	addi	a0,a0,-2048 # 800 <stvec_handler+0x6a0>
  f0:	30052073          	csrs	mstatus,a0
  f4:	02200513          	li	a0,34
  f8:	30352073          	csrs	mideleg,a0
  fc:	00000297          	auipc	t0,0x0
 100:	01428293          	addi	t0,t0,20 # 110 <reset_vector+0xc4>
 104:	34129073          	csrw	mepc,t0
 108:	f1402573          	csrr	a0,mhartid
 10c:	30200073          	mret
 110:	00200193          	li	gp,2
 114:	00800313          	li	t1,8
 118:	10000293          	li	t0,256
 11c:	1002b073          	csrc	sstatus,t0
 120:	00000297          	auipc	t0,0x0
 124:	01028293          	addi	t0,t0,16 # 130 <reset_vector+0xe4>
 128:	14129073          	csrw	sepc,t0
 12c:	10200073          	sret
 130:	00100193          	li	gp,1

00000134 <do_scall>:
 134:	00000073          	ecall
 138:	0080006f          	j	140 <fail>
 13c:	00301c63          	bne	zero,gp,154 <pass>

00000140 <fail>:
 140:	0ff0000f          	fence
 144:	00018063          	beqz	gp,144 <fail+0x4>
 148:	00119193          	slli	gp,gp,0x1
 14c:	0011e193          	ori	gp,gp,1
 150:	00000073          	ecall

00000154 <pass>:
 154:	0ff0000f          	fence
 158:	00100193          	li	gp,1
 15c:	00000073          	ecall

00000160 <stvec_handler>:
 160:	142022f3          	csrr	t0,scause
 164:	fc629ee3          	bne	t0,t1,140 <fail>
 168:	00000397          	auipc	t2,0x0
 16c:	fcc38393          	addi	t2,t2,-52 # 134 <do_scall>
 170:	141022f3          	csrr	t0,sepc
 174:	fc7296e3          	bne	t0,t2,140 <fail>
 178:	fddff06f          	j	154 <pass>
 17c:	c0001073          	unimp
 180:	0000                	unimp
 182:	0000                	unimp
