
rv64ud-p-fclass:     file format elf64-littleriscv


Disassembly of section .text.init:

0000000000000000 <_start>:
   0:	04c0006f          	j	4c <reset_vector>

0000000000000004 <trap_vector>:
   4:	34202f73          	csrr	t5,mcause
   8:	00800f93          	li	t6,8
   c:	03ff0a63          	beq	t5,t6,40 <write_tohost>
  10:	00900f93          	li	t6,9
  14:	03ff0663          	beq	t5,t6,40 <write_tohost>
  18:	00b00f93          	li	t6,11
  1c:	03ff0263          	beq	t5,t6,40 <write_tohost>
  20:	00000f17          	auipc	t5,0x0
  24:	fe0f0f13          	addi	t5,t5,-32 # 0 <_start>
  28:	000f0463          	beqz	t5,30 <trap_vector+0x2c>
  2c:	000f0067          	jr	t5
  30:	34202f73          	csrr	t5,mcause
  34:	000f5463          	bgez	t5,3c <handle_exception>
  38:	0040006f          	j	3c <handle_exception>

000000000000003c <handle_exception>:
  3c:	5391e193          	ori	gp,gp,1337

0000000000000040 <write_tohost>:
  40:	00001f17          	auipc	t5,0x1
  44:	fc3f2023          	sw	gp,-64(t5) # 1000 <tohost>
  48:	ff9ff06f          	j	40 <write_tohost>

000000000000004c <reset_vector>:
  4c:	f1402573          	csrr	a0,mhartid
  50:	00051063          	bnez	a0,50 <reset_vector+0x4>
  54:	00000297          	auipc	t0,0x0
  58:	01028293          	addi	t0,t0,16 # 64 <reset_vector+0x18>
  5c:	30529073          	csrw	mtvec,t0
  60:	18005073          	csrwi	satp,0
  64:	00000297          	auipc	t0,0x0
  68:	01c28293          	addi	t0,t0,28 # 80 <reset_vector+0x34>
  6c:	30529073          	csrw	mtvec,t0
  70:	fff00293          	li	t0,-1
  74:	3b029073          	csrw	pmpaddr0,t0
  78:	01f00293          	li	t0,31
  7c:	3a029073          	csrw	pmpcfg0,t0
  80:	00000297          	auipc	t0,0x0
  84:	01828293          	addi	t0,t0,24 # 98 <reset_vector+0x4c>
  88:	30529073          	csrw	mtvec,t0
  8c:	30205073          	csrwi	medeleg,0
  90:	30305073          	csrwi	mideleg,0
  94:	30405073          	csrwi	mie,0
  98:	00000193          	li	gp,0
  9c:	00000297          	auipc	t0,0x0
  a0:	f6828293          	addi	t0,t0,-152 # 4 <trap_vector>
  a4:	30529073          	csrw	mtvec,t0
  a8:	00100513          	li	a0,1
  ac:	01f51513          	slli	a0,a0,0x1f
  b0:	00055863          	bgez	a0,c0 <reset_vector+0x74>
  b4:	0ff0000f          	fence
  b8:	00100193          	li	gp,1
  bc:	00000073          	ecall
  c0:	00000297          	auipc	t0,0x0
  c4:	f4028293          	addi	t0,t0,-192 # 0 <_start>
  c8:	00028e63          	beqz	t0,e4 <reset_vector+0x98>
  cc:	10529073          	csrw	stvec,t0
  d0:	0000b2b7          	lui	t0,0xb
  d4:	1092829b          	addiw	t0,t0,265
  d8:	30229073          	csrw	medeleg,t0
  dc:	30202373          	csrr	t1,medeleg
  e0:	f4629ee3          	bne	t0,t1,3c <handle_exception>
  e4:	30005073          	csrwi	mstatus,0
  e8:	00002537          	lui	a0,0x2
  ec:	30052073          	csrs	mstatus,a0
  f0:	00305073          	csrwi	fcsr,0
  f4:	00000297          	auipc	t0,0x0
  f8:	01428293          	addi	t0,t0,20 # 108 <test_2>
  fc:	34129073          	csrw	mepc,t0
 100:	f1402573          	csrr	a0,mhartid
 104:	30200073          	mret

0000000000000108 <test_2>:
 108:	fff0051b          	addiw	a0,zero,-1
 10c:	03451513          	slli	a0,a0,0x34
 110:	f2050553          	fmv.d.x	fa0,a0
 114:	e2051553          	fclass.d	a0,fa0
 118:	00100e93          	li	t4,1
 11c:	00200193          	li	gp,2
 120:	11d51863          	bne	a0,t4,230 <fail>

0000000000000124 <test_3>:
 124:	bff0051b          	addiw	a0,zero,-1025
 128:	03451513          	slli	a0,a0,0x34
 12c:	f2050553          	fmv.d.x	fa0,a0
 130:	e2051553          	fclass.d	a0,fa0
 134:	00200e93          	li	t4,2
 138:	00300193          	li	gp,3
 13c:	0fd51a63          	bne	a0,t4,230 <fail>

0000000000000140 <test_4>:
 140:	8010051b          	addiw	a0,zero,-2047
 144:	03451513          	slli	a0,a0,0x34
 148:	fff50513          	addi	a0,a0,-1 # 1fff <fromhost+0xfbf>
 14c:	f2050553          	fmv.d.x	fa0,a0
 150:	e2051553          	fclass.d	a0,fa0
 154:	00400e93          	li	t4,4
 158:	00400193          	li	gp,4
 15c:	0dd51a63          	bne	a0,t4,230 <fail>

0000000000000160 <test_5>:
 160:	fff0051b          	addiw	a0,zero,-1
 164:	03f51513          	slli	a0,a0,0x3f
 168:	f2050553          	fmv.d.x	fa0,a0
 16c:	e2051553          	fclass.d	a0,fa0
 170:	00800e93          	li	t4,8
 174:	00500193          	li	gp,5
 178:	0bd51c63          	bne	a0,t4,230 <fail>

000000000000017c <test_6>:
 17c:	00000513          	li	a0,0
 180:	f2050553          	fmv.d.x	fa0,a0
 184:	e2051553          	fclass.d	a0,fa0
 188:	01000e93          	li	t4,16
 18c:	00600193          	li	gp,6
 190:	0bd51063          	bne	a0,t4,230 <fail>

0000000000000194 <test_7>:
 194:	0010051b          	addiw	a0,zero,1
 198:	03451513          	slli	a0,a0,0x34
 19c:	fff50513          	addi	a0,a0,-1
 1a0:	f2050553          	fmv.d.x	fa0,a0
 1a4:	e2051553          	fclass.d	a0,fa0
 1a8:	02000e93          	li	t4,32
 1ac:	00700193          	li	gp,7
 1b0:	09d51063          	bne	a0,t4,230 <fail>

00000000000001b4 <test_8>:
 1b4:	3ff0051b          	addiw	a0,zero,1023
 1b8:	03451513          	slli	a0,a0,0x34
 1bc:	f2050553          	fmv.d.x	fa0,a0
 1c0:	e2051553          	fclass.d	a0,fa0
 1c4:	04000e93          	li	t4,64
 1c8:	00800193          	li	gp,8
 1cc:	07d51263          	bne	a0,t4,230 <fail>

00000000000001d0 <test_9>:
 1d0:	7ff0051b          	addiw	a0,zero,2047
 1d4:	03451513          	slli	a0,a0,0x34
 1d8:	f2050553          	fmv.d.x	fa0,a0
 1dc:	e2051553          	fclass.d	a0,fa0
 1e0:	08000e93          	li	t4,128
 1e4:	00900193          	li	gp,9
 1e8:	05d51463          	bne	a0,t4,230 <fail>

00000000000001ec <test_10>:
 1ec:	7ff0051b          	addiw	a0,zero,2047
 1f0:	03451513          	slli	a0,a0,0x34
 1f4:	00150513          	addi	a0,a0,1
 1f8:	f2050553          	fmv.d.x	fa0,a0
 1fc:	e2051553          	fclass.d	a0,fa0
 200:	10000e93          	li	t4,256
 204:	00a00193          	li	gp,10
 208:	03d51463          	bne	a0,t4,230 <fail>

000000000000020c <test_11>:
 20c:	00001537          	lui	a0,0x1
 210:	fff5051b          	addiw	a0,a0,-1
 214:	03351513          	slli	a0,a0,0x33
 218:	f2050553          	fmv.d.x	fa0,a0
 21c:	e2051553          	fclass.d	a0,fa0
 220:	20000e93          	li	t4,512
 224:	00b00193          	li	gp,11
 228:	01d51463          	bne	a0,t4,230 <fail>
 22c:	00301c63          	bne	zero,gp,244 <pass>

0000000000000230 <fail>:
 230:	0ff0000f          	fence
 234:	00018063          	beqz	gp,234 <fail+0x4>
 238:	00119193          	slli	gp,gp,0x1
 23c:	0011e193          	ori	gp,gp,1
 240:	00000073          	ecall

0000000000000244 <pass>:
 244:	0ff0000f          	fence
 248:	00100193          	li	gp,1
 24c:	00000073          	ecall
 250:	c0001073          	unimp
 254:	0000                	unimp
 256:	0000                	unimp
 258:	0000                	unimp
 25a:	0000                	unimp
 25c:	0000                	unimp
 25e:	0000                	unimp
 260:	0000                	unimp
 262:	0000                	unimp
 264:	0000                	unimp
 266:	0000                	unimp
 268:	0000                	unimp
 26a:	0000                	unimp
 26c:	0000                	unimp
 26e:	0000                	unimp
 270:	0000                	unimp
 272:	0000                	unimp
 274:	0000                	unimp
 276:	0000                	unimp
 278:	0000                	unimp
 27a:	0000                	unimp
 27c:	0000                	unimp
 27e:	0000                	unimp
 280:	0000                	unimp
 282:	0000                	unimp
