
rv64mi-p-csr:     file format elf64-littleriscv


Disassembly of section .text.init:

0000000000000000 <_start>:
   0:	04c0006f          	j	4c <reset_vector>

0000000000000004 <trap_vector>:
   4:	34202f73          	csrr	t5,mcause
   8:	00800f93          	li	t6,8
   c:	03ff0a63          	beq	t5,t6,40 <write_tohost>
  10:	00900f93          	li	t6,9
  14:	03ff0663          	beq	t5,t6,40 <write_tohost>
  18:	00b00f93          	li	t6,11
  1c:	03ff0263          	beq	t5,t6,40 <write_tohost>
  20:	00000f17          	auipc	t5,0x0
  24:	2a0f0f13          	addi	t5,t5,672 # 2c0 <mtvec_handler>
  28:	000f0463          	beqz	t5,30 <trap_vector+0x2c>
  2c:	000f0067          	jr	t5
  30:	34202f73          	csrr	t5,mcause
  34:	000f5463          	bgez	t5,3c <handle_exception>
  38:	0040006f          	j	3c <handle_exception>

000000000000003c <handle_exception>:
  3c:	5391e193          	ori	gp,gp,1337

0000000000000040 <write_tohost>:
  40:	00001f17          	auipc	t5,0x1
  44:	fc3f2023          	sw	gp,-64(t5) # 1000 <tohost>
  48:	ff9ff06f          	j	40 <write_tohost>

000000000000004c <reset_vector>:
  4c:	f1402573          	csrr	a0,mhartid
  50:	00051063          	bnez	a0,50 <reset_vector+0x4>
  54:	00000297          	auipc	t0,0x0
  58:	01028293          	addi	t0,t0,16 # 64 <reset_vector+0x18>
  5c:	30529073          	csrw	mtvec,t0
  60:	18005073          	csrwi	satp,0
  64:	00000297          	auipc	t0,0x0
  68:	01c28293          	addi	t0,t0,28 # 80 <reset_vector+0x34>
  6c:	30529073          	csrw	mtvec,t0
  70:	fff00293          	li	t0,-1
  74:	3b029073          	csrw	pmpaddr0,t0
  78:	01f00293          	li	t0,31
  7c:	3a029073          	csrw	pmpcfg0,t0
  80:	00000297          	auipc	t0,0x0
  84:	01828293          	addi	t0,t0,24 # 98 <reset_vector+0x4c>
  88:	30529073          	csrw	mtvec,t0
  8c:	30205073          	csrwi	medeleg,0
  90:	30305073          	csrwi	mideleg,0
  94:	30405073          	csrwi	mie,0
  98:	00000193          	li	gp,0
  9c:	00000297          	auipc	t0,0x0
  a0:	f6828293          	addi	t0,t0,-152 # 4 <trap_vector>
  a4:	30529073          	csrw	mtvec,t0
  a8:	00100513          	li	a0,1
  ac:	01f51513          	slli	a0,a0,0x1f
  b0:	00055863          	bgez	a0,c0 <reset_vector+0x74>
  b4:	0ff0000f          	fence
  b8:	00100193          	li	gp,1
  bc:	00000073          	ecall
  c0:	00000297          	auipc	t0,0x0
  c4:	f4028293          	addi	t0,t0,-192 # 0 <_start>
  c8:	00028e63          	beqz	t0,e4 <reset_vector+0x98>
  cc:	10529073          	csrw	stvec,t0
  d0:	0000b2b7          	lui	t0,0xb
  d4:	1092829b          	addiw	t0,t0,265
  d8:	30229073          	csrw	medeleg,t0
  dc:	30202373          	csrr	t1,medeleg
  e0:	f4629ee3          	bne	t0,t1,3c <handle_exception>
  e4:	30005073          	csrwi	mstatus,0
  e8:	00002537          	lui	a0,0x2
  ec:	8005051b          	addiw	a0,a0,-2048
  f0:	30052073          	csrs	mstatus,a0
  f4:	00000297          	auipc	t0,0x0
  f8:	01428293          	addi	t0,t0,20 # 108 <reset_vector+0xbc>
  fc:	34129073          	csrw	mepc,t0
 100:	f1402573          	csrr	a0,mhartid
 104:	30200073          	mret
 108:	000022b7          	lui	t0,0x2
 10c:	8002829b          	addiw	t0,t0,-2048
 110:	3002b073          	csrc	mstatus,t0
 114:	30002373          	csrr	t1,mstatus
 118:	0062f2b3          	and	t0,t0,t1
 11c:	02029463          	bnez	t0,144 <test_14>

0000000000000120 <test_13>:
 120:	30002573          	csrr	a0,mstatus
 124:	0030059b          	addiw	a1,zero,3
 128:	02059593          	slli	a1,a1,0x20
 12c:	00b57533          	and	a0,a0,a1
 130:	00100e9b          	addiw	t4,zero,1
 134:	021e9e93          	slli	t4,t4,0x21
 138:	00d00193          	li	gp,13
 13c:	17d51263          	bne	a0,t4,2a0 <fail>
 140:	0200006f          	j	160 <test_14+0x1c>

0000000000000144 <test_14>:
 144:	30002573          	csrr	a0,mstatus
 148:	0030059b          	addiw	a1,zero,3
 14c:	02059593          	slli	a1,a1,0x20
 150:	00b57533          	and	a0,a0,a1
 154:	00000e93          	li	t4,0
 158:	00e00193          	li	gp,14
 15c:	15d51263          	bne	a0,t4,2a0 <fail>
 160:	3401d073          	csrwi	mscratch,3

0000000000000164 <test_2>:
 164:	34002573          	csrr	a0,mscratch
 168:	00300e93          	li	t4,3
 16c:	00200193          	li	gp,2
 170:	13d51863          	bne	a0,t4,2a0 <fail>

0000000000000174 <test_3>:
 174:	3400f5f3          	csrrci	a1,mscratch,1
 178:	00300e93          	li	t4,3
 17c:	00300193          	li	gp,3
 180:	13d59063          	bne	a1,t4,2a0 <fail>

0000000000000184 <test_4>:
 184:	34026673          	csrrsi	a2,mscratch,4
 188:	00200e93          	li	t4,2
 18c:	00400193          	li	gp,4
 190:	11d61863          	bne	a2,t4,2a0 <fail>

0000000000000194 <test_5>:
 194:	340156f3          	csrrwi	a3,mscratch,2
 198:	00600e93          	li	t4,6
 19c:	00500193          	li	gp,5
 1a0:	11d69063          	bne	a3,t4,2a0 <fail>

00000000000001a4 <test_6>:
 1a4:	0bad2537          	lui	a0,0xbad2
 1a8:	dea5051b          	addiw	a0,a0,-534
 1ac:	340515f3          	csrrw	a1,mscratch,a0
 1b0:	00200e93          	li	t4,2
 1b4:	00600193          	li	gp,6
 1b8:	0fd59463          	bne	a1,t4,2a0 <fail>

00000000000001bc <test_7>:
 1bc:	00002537          	lui	a0,0x2
 1c0:	dea5051b          	addiw	a0,a0,-534
 1c4:	34053573          	csrrc	a0,mscratch,a0
 1c8:	0bad2eb7          	lui	t4,0xbad2
 1cc:	deae8e9b          	addiw	t4,t4,-534
 1d0:	00700193          	li	gp,7
 1d4:	0dd51663          	bne	a0,t4,2a0 <fail>

00000000000001d8 <test_8>:
 1d8:	0000c537          	lui	a0,0xc
 1dc:	eef5051b          	addiw	a0,a0,-273
 1e0:	34052573          	csrrs	a0,mscratch,a0
 1e4:	0bad0eb7          	lui	t4,0xbad0
 1e8:	00800193          	li	gp,8
 1ec:	0bd51a63          	bne	a0,t4,2a0 <fail>

00000000000001f0 <test_9>:
 1f0:	34002573          	csrr	a0,mscratch
 1f4:	0badceb7          	lui	t4,0xbadc
 1f8:	eefe8e9b          	addiw	t4,t4,-273
 1fc:	00900193          	li	gp,9
 200:	0bd51063          	bne	a0,t4,2a0 <fail>
 204:	30102573          	csrr	a0,misa
 208:	02057513          	andi	a0,a0,32
 20c:	02050863          	beqz	a0,23c <test_10+0x14>
 210:	000065b7          	lui	a1,0x6
 214:	3005a073          	csrs	mstatus,a1
 218:	f0000053          	fmv.w.x	ft0,zero
 21c:	3005b073          	csrc	mstatus,a1
 220:	00002597          	auipc	a1,0x2
 224:	de058593          	addi	a1,a1,-544 # 2000 <begin_signature>

0000000000000228 <test_10>:
 228:	0005a027          	fsw	ft0,0(a1)
 22c:	0005a503          	lw	a0,0(a1)
 230:	00100e93          	li	t4,1
 234:	00a00193          	li	gp,10
 238:	07d51463          	bne	a0,t4,2a0 <fail>
 23c:	30102573          	csrr	a0,misa
 240:	01455513          	srli	a0,a0,0x14
 244:	00157513          	andi	a0,a0,1
 248:	04050463          	beqz	a0,290 <finish>
 24c:	000022b7          	lui	t0,0x2
 250:	8002829b          	addiw	t0,t0,-2048
 254:	3002b073          	csrc	mstatus,t0
 258:	00000297          	auipc	t0,0x0
 25c:	01028293          	addi	t0,t0,16 # 268 <test_11>
 260:	34129073          	csrw	mepc,t0
 264:	30200073          	mret

0000000000000268 <test_11>:
 268:	0ff00513          	li	a0,255
 26c:	c0001573          	csrrw	a0,cycle,zero
 270:	0ff00e93          	li	t4,255
 274:	00b00193          	li	gp,11
 278:	03d51463          	bne	a0,t4,2a0 <fail>

000000000000027c <test_12>:
 27c:	0ff00513          	li	a0,255
 280:	30002573          	csrr	a0,mstatus
 284:	0ff00e93          	li	t4,255
 288:	00c00193          	li	gp,12
 28c:	01d51a63          	bne	a0,t4,2a0 <fail>

0000000000000290 <finish>:
 290:	0ff0000f          	fence
 294:	00100193          	li	gp,1
 298:	00000073          	ecall
 29c:	00301c63          	bne	zero,gp,2b4 <pass>

00000000000002a0 <fail>:
 2a0:	0ff0000f          	fence
 2a4:	00018063          	beqz	gp,2a4 <fail+0x4>
 2a8:	00119193          	slli	gp,gp,0x1
 2ac:	0011e193          	ori	gp,gp,1
 2b0:	00000073          	ecall

00000000000002b4 <pass>:
 2b4:	0ff0000f          	fence
 2b8:	00100193          	li	gp,1
 2bc:	00000073          	ecall

00000000000002c0 <mtvec_handler>:
 2c0:	00900293          	li	t0,9
 2c4:	0051e663          	bltu	gp,t0,2d0 <mtvec_handler+0x10>
 2c8:	00b00293          	li	t0,11
 2cc:	0032fe63          	bleu	gp,t0,2e8 <privileged>
 2d0:	342022f3          	csrr	t0,mcause
 2d4:	00800313          	li	t1,8
 2d8:	fc6294e3          	bne	t0,t1,2a0 <fail>
 2dc:	0ff0000f          	fence
 2e0:	00100193          	li	gp,1
 2e4:	00000073          	ecall

00000000000002e8 <privileged>:
 2e8:	342022f3          	csrr	t0,mcause
 2ec:	00200313          	li	t1,2
 2f0:	fa6298e3          	bne	t0,t1,2a0 <fail>
 2f4:	341022f3          	csrr	t0,mepc
 2f8:	00428293          	addi	t0,t0,4
 2fc:	34129073          	csrw	mepc,t0
 300:	30200073          	mret
 304:	c0001073          	unimp
 308:	0000                	unimp
 30a:	0000                	unimp
 30c:	0000                	unimp
 30e:	0000                	unimp
 310:	0000                	unimp
 312:	0000                	unimp
 314:	0000                	unimp
 316:	0000                	unimp
 318:	0000                	unimp
 31a:	0000                	unimp
 31c:	0000                	unimp
 31e:	0000                	unimp
 320:	0000                	unimp
 322:	0000                	unimp
 324:	0000                	unimp
 326:	0000                	unimp
 328:	0000                	unimp
 32a:	0000                	unimp
 32c:	0000                	unimp
 32e:	0000                	unimp
 330:	0000                	unimp
 332:	0000                	unimp
 334:	0000                	unimp
 336:	0000                	unimp
 338:	0000                	unimp
 33a:	0000                	unimp
 33c:	0000                	unimp
 33e:	0000                	unimp
 340:	0000                	unimp
 342:	0000                	unimp

Disassembly of section .data:

0000000000002000 <begin_signature>:
    2000:	0001                	nop
    2002:	0000                	unimp
    2004:	0000                	unimp
    2006:	0000                	unimp
    2008:	0000                	unimp
    200a:	0000                	unimp
    200c:	0000                	unimp
    200e:	0000                	unimp
